target datalayout = "e-m:e-p270:32:32-p271:32:32-p272:64:64-i64:64-i128:128-f80:128-n8:16:32:64-S128"
target triple = "x86_64-unknown-linux-gnu"

%struct.uv_handle_s = type { ptr, ptr, i32, ptr, %struct.uv__queue, %union.anon.0, ptr, i32 }
%struct.uv__queue = type { ptr, ptr }
%union.anon.0 = type { [4 x ptr] }
%struct.uv_loop_s = type { ptr, i32, %struct.uv__queue, %union.anon.1, ptr, i32, i64, i32, %struct.uv__queue, %struct.uv__queue, ptr, i32, i32, %struct.uv__queue, %union.pthread_mutex_t, %struct.uv_async_s, %union.pthread_rwlock_t, ptr, %struct.uv__queue, %struct.uv__queue, %struct.uv__queue, %struct.uv__queue, %struct.uv__queue, ptr, %struct.uv__io_s, i32, %struct.anon, i64, i64, [2 x i32], %struct.uv__io_s, %struct.uv_signal_s, i32, %struct.uv__io_s, ptr, i32 }
%union.anon.1 = type { ptr }
%union.pthread_mutex_t = type { %struct.__pthread_mutex_s }
%struct.__pthread_mutex_s = type { i32, i32, i32, i32, i32, i16, i16, %struct.__pthread_internal_list }
%struct.__pthread_internal_list = type { ptr, ptr }
%struct.uv_async_s = type { ptr, ptr, i32, ptr, %struct.uv__queue, %union.anon.2, ptr, i32, ptr, %struct.uv__queue, i32 }
%union.anon.2 = type { [4 x ptr] }
%union.pthread_rwlock_t = type { %struct.__pthread_rwlock_arch_t }
%struct.__pthread_rwlock_arch_t = type { i32, i32, i32, i32, i32, i32, i32, i32, i8, [7 x i8], i64, i32 }
%struct.anon = type { ptr, i32 }
%struct.uv_signal_s = type { ptr, ptr, i32, ptr, %struct.uv__queue, %union.anon.3, ptr, i32, ptr, i32, %struct.anon.4, i32, i32 }
%union.anon.3 = type { [4 x ptr] }
%struct.anon.4 = type { ptr, ptr, ptr, i32 }
%struct.uv__io_s = type { ptr, %struct.uv__queue, %struct.uv__queue, i32, i32, i32 }
%struct.uv_idle_s = type { ptr, ptr, i32, ptr, %struct.uv__queue, %union.anon.6, ptr, i32, ptr, %struct.uv__queue }
%union.anon.6 = type { [4 x ptr] }

; Function Attrs: nounwind uwtable
define internal void @uv__queue_insert_tail(ptr noundef %h, ptr noundef %q) #0 {
entry:
  %h.addr = alloca ptr, align 8
  %q.addr = alloca ptr, align 8
  store ptr %h, ptr %h.addr, align 8
  store ptr %q, ptr %q.addr, align 8
  %0 = load ptr, ptr %h.addr, align 8
  %1 = load ptr, ptr %q.addr, align 8
  %next = getelementptr inbounds %struct.uv__queue, ptr %1, i32 0, i32 0
  store ptr %0, ptr %next, align 8
  %2 = load ptr, ptr %h.addr, align 8
  %prev = getelementptr inbounds %struct.uv__queue, ptr %2, i32 0, i32 1
  %3 = load ptr, ptr %prev, align 8
  %4 = load ptr, ptr %q.addr, align 8
  %prev1 = getelementptr inbounds %struct.uv__queue, ptr %4, i32 0, i32 1
  store ptr %3, ptr %prev1, align 8
  %5 = load ptr, ptr %q.addr, align 8
  %6 = load ptr, ptr %q.addr, align 8
  %prev2 = getelementptr inbounds %struct.uv__queue, ptr %6, i32 0, i32 1
  %7 = load ptr, ptr %prev2, align 8
  %next3 = getelementptr inbounds %struct.uv__queue, ptr %7, i32 0, i32 0
  store ptr %5, ptr %next3, align 8
  %8 = load ptr, ptr %q.addr, align 8
  %9 = load ptr, ptr %h.addr, align 8
  %prev4 = getelementptr inbounds %struct.uv__queue, ptr %9, i32 0, i32 1
  store ptr %8, ptr %prev4, align 8
  ret void
}

; Function Attrs: nounwind uwtable
define i32 @uv_idle_init(ptr noundef %loop, ptr noundef %handle) #0 {
entry:
  %loop.addr = alloca ptr, align 8
  %handle.addr = alloca ptr, align 8
  store ptr %loop, ptr %loop.addr, align 8
  store ptr %handle, ptr %handle.addr, align 8
  br label %do.body

do.body:                                          ; preds = %entry
  %0 = load ptr, ptr %loop.addr, align 8
  %1 = load ptr, ptr %handle.addr, align 8
  %loop1 = getelementptr inbounds %struct.uv_handle_s, ptr %1, i32 0, i32 1
  store ptr %0, ptr %loop1, align 8
  %2 = load ptr, ptr %handle.addr, align 8
  %type = getelementptr inbounds %struct.uv_handle_s, ptr %2, i32 0, i32 2
  store i32 6, ptr %type, align 8
  %3 = load ptr, ptr %handle.addr, align 8
  %flags = getelementptr inbounds %struct.uv_handle_s, ptr %3, i32 0, i32 7
  store i32 8, ptr %flags, align 8
  %4 = load ptr, ptr %loop.addr, align 8
  %handle_queue = getelementptr inbounds %struct.uv_loop_s, ptr %4, i32 0, i32 2
  %5 = load ptr, ptr %handle.addr, align 8
  %handle_queue2 = getelementptr inbounds %struct.uv_handle_s, ptr %5, i32 0, i32 4
  call void @uv__queue_insert_tail(ptr noundef %handle_queue, ptr noundef %handle_queue2)
  %6 = load ptr, ptr %handle.addr, align 8
  %next_closing = getelementptr inbounds %struct.uv_handle_s, ptr %6, i32 0, i32 6
  store ptr null, ptr %next_closing, align 8
  br label %do.end

do.end:                                           ; preds = %do.body
  %7 = load ptr, ptr %handle.addr, align 8
  %idle_cb = getelementptr inbounds %struct.uv_idle_s, ptr %7, i32 0, i32 8
  store ptr null, ptr %idle_cb, align 8
  ret i32 0
}