; Function Attrs: mustprogress nofree norecurse nosync nounwind willreturn memory(write, argmem: readwrite, inaccessiblemem: none) uwtable
define noundef i32 @uv_idle_init(ptr noundef %loop, ptr noundef initializes((8, 20), (32, 48), (88, 92)) %handle) local_unnamed_addr #0 {
entry:
  %loop1 = getelementptr inbounds nuw i8, ptr %handle, i64 8
  store ptr %loop, ptr %loop1, align 8
  %type = getelementptr inbounds nuw i8, ptr %handle, i64 16
  store i32 6, ptr %type, align 8
  %flags = getelementptr inbounds nuw i8, ptr %handle, i64 88
  store i32 8, ptr %flags, align 8
  %handle_queue = getelementptr inbounds nuw i8, ptr %loop, i64 16
  %handle_queue2 = getelementptr inbounds nuw i8, ptr %handle, i64 32
  store ptr %handle_queue, ptr %handle_queue2, align 8
  %prev.i = getelementptr inbounds nuw i8, ptr %loop, i64 24
  %0 = load ptr, ptr %prev.i, align 8
  %prev1.i = getelementptr inbounds nuw i8, ptr %handle, i64 40
  store ptr %0, ptr %prev1.i, align 8
  store ptr %handle_queue2, ptr %0, align 8
  store ptr %handle_queue2, ptr %prev.i, align 8
  %next_closing = getelementptr inbounds nuw i8, ptr %handle, i64 80
  store ptr null, ptr %next_closing, align 8
  %idle_cb = getelementptr inbounds nuw i8, ptr %handle, i64 96
  store ptr null, ptr %idle_cb, align 8
  ret i32 0
}